target datalayout = "e-m:e-p270:32:32-p271:32:32-p272:64:64-i64:64-i128:128-f80:128-n8:16:32:64-S128"
target triple = "x86_64-unknown-linux-gnu"

; Function Attrs: mustprogress nounwind uwtable
define noundef i32 @_ZN8facebook5velox4util22extractISODayOfTheWeekEi(i32 noundef %daysSinceEpoch) #0 {
entry:
  %retval = alloca i32, align 4
  %daysSinceEpoch.addr = alloca i32, align 4
  store i32 %daysSinceEpoch, ptr %daysSinceEpoch.addr, align 4
  %0 = load i32, ptr %daysSinceEpoch.addr, align 4
  %cmp = icmp slt i32 %0, 0
  br i1 %cmp, label %if.then, label %if.else

if.then:                                          ; preds = %entry
  %1 = load i32, ptr %daysSinceEpoch.addr, align 4
  %conv = sext i32 %1 to i64
  %sub = sub nsw i64 0, %conv
  %add = add nsw i64 %sub, 3
  %rem = srem i64 %add, 7
  %sub1 = sub nsw i64 7, %rem
  %conv2 = trunc i64 %sub1 to i32
  store i32 %conv2, ptr %retval, align 4
  br label %return

if.else:                                          ; preds = %entry
  %2 = load i32, ptr %daysSinceEpoch.addr, align 4
  %conv3 = sext i32 %2 to i64
  %add4 = add nsw i64 %conv3, 3
  %rem5 = srem i64 %add4, 7
  %add6 = add nsw i64 %rem5, 1
  %conv7 = trunc i64 %add6 to i32
  store i32 %conv7, ptr %retval, align 4
  br label %return

return:                                           ; preds = %if.else, %if.then
  %3 = load i32, ptr %retval, align 4
  ret i32 %3
}