; Function Attrs: mustprogress nofree norecurse nosync nounwind willreturn memory(none) uwtable
define noundef range(i32 1, 8) i32 @_ZN8facebook5velox4util22extractISODayOfTheWeekEi(i32 noundef %daysSinceEpoch) local_unnamed_addr #0 {
entry:
  %cmp = icmp slt i32 %daysSinceEpoch, 0
  br i1 %cmp, label %if.then, label %if.else

if.then:                                          ; preds = %entry
  %add = sub i32 3, %daysSinceEpoch
  %rem = urem i32 %add, 7
  %sub1 = xor i32 %rem, 7
  br label %return

if.else:                                          ; preds = %entry
  %narrow = add nuw i32 %daysSinceEpoch, 3
  %0 = urem i32 %narrow, 7
  %narrow3 = add nuw nsw i32 %0, 1
  br label %return

return:                                           ; preds = %if.else, %if.then
  %retval.0 = phi i32 [ %sub1, %if.then ], [ %narrow3, %if.else ]
  ret i32 %retval.0
}